target datalayout = "e-m:e-p270:32:32-p271:32:32-p272:64:64-i64:64-i128:128-f80:128-n8:16:32:64-S128"
target triple = "x86_64-unknown-linux-gnu"

@_ZZN8QuantLib7MINPACK5enormEiPdE6rdwarf = internal global double 3.834000e-20, align 8
@_ZZN8QuantLib7MINPACK5enormEiPdE6rgiant = internal global double 1.304000e+19, align 8
@_ZZN8QuantLib7MINPACK5enormEiPdE4zero = internal global double 0.000000e+00, align 8
@_ZZN8QuantLib7MINPACK5enormEiPdE3one = internal global double 1.000000e+00, align 8

; Function Attrs: mustprogress nounwind uwtable
define noundef double @_ZN8QuantLib7MINPACK5enormEiPd(i32 noundef %n, ptr noundef %x) #0 {
entry:
  %retval = alloca double, align 8
  %n.addr = alloca i32, align 4
  %x.addr = alloca ptr, align 8
  %i = alloca i32, align 4
  %agiant = alloca double, align 8
  %floatn = alloca double, align 8
  %s1 = alloca double, align 8
  %s2 = alloca double, align 8
  %s3 = alloca double, align 8
  %xabs = alloca double, align 8
  %x1max = alloca double, align 8
  %x3max = alloca double, align 8
  %ans = alloca double, align 8
  %temp = alloca double, align 8
  %cleanup.dest.slot = alloca i32, align 4
  store i32 %n, ptr %n.addr, align 4, !tbaa !3
  store ptr %x, ptr %x.addr, align 8, !tbaa !7
  call void @llvm.lifetime.start.p0(i64 4, ptr %i) #6
  call void @llvm.lifetime.start.p0(i64 8, ptr %agiant) #6
  call void @llvm.lifetime.start.p0(i64 8, ptr %floatn) #6
  call void @llvm.lifetime.start.p0(i64 8, ptr %s1) #6
  call void @llvm.lifetime.start.p0(i64 8, ptr %s2) #6
  call void @llvm.lifetime.start.p0(i64 8, ptr %s3) #6
  call void @llvm.lifetime.start.p0(i64 8, ptr %xabs) #6
  call void @llvm.lifetime.start.p0(i64 8, ptr %x1max) #6
  call void @llvm.lifetime.start.p0(i64 8, ptr %x3max) #6
  call void @llvm.lifetime.start.p0(i64 8, ptr %ans) #6
  call void @llvm.lifetime.start.p0(i64 8, ptr %temp) #6
  %0 = load double, ptr @_ZZN8QuantLib7MINPACK5enormEiPdE4zero, align 8, !tbaa !9
  store double %0, ptr %s1, align 8, !tbaa !9
  %1 = load double, ptr @_ZZN8QuantLib7MINPACK5enormEiPdE4zero, align 8, !tbaa !9
  store double %1, ptr %s2, align 8, !tbaa !9
  %2 = load double, ptr @_ZZN8QuantLib7MINPACK5enormEiPdE4zero, align 8, !tbaa !9
  store double %2, ptr %s3, align 8, !tbaa !9
  %3 = load double, ptr @_ZZN8QuantLib7MINPACK5enormEiPdE4zero, align 8, !tbaa !9
  store double %3, ptr %x1max, align 8, !tbaa !9
  %4 = load double, ptr @_ZZN8QuantLib7MINPACK5enormEiPdE4zero, align 8, !tbaa !9
  store double %4, ptr %x3max, align 8, !tbaa !9
  %5 = load i32, ptr %n.addr, align 4, !tbaa !3
  %conv = sitofp i32 %5 to double
  store double %conv, ptr %floatn, align 8, !tbaa !9
  %6 = load double, ptr @_ZZN8QuantLib7MINPACK5enormEiPdE6rgiant, align 8, !tbaa !9
  %7 = load double, ptr %floatn, align 8, !tbaa !9
  %div = fdiv double %6, %7
  store double %div, ptr %agiant, align 8, !tbaa !9
  store i32 0, ptr %i, align 4, !tbaa !3
  br label %for.cond

for.cond:                                         ; preds = %for.inc, %entry
  %8 = load i32, ptr %i, align 4, !tbaa !3
  %9 = load i32, ptr %n.addr, align 4, !tbaa !3
  %cmp = icmp slt i32 %8, %9
  br i1 %cmp, label %for.body, label %for.end

for.body:                                         ; preds = %for.cond
  %10 = load ptr, ptr %x.addr, align 8, !tbaa !7
  %11 = load i32, ptr %i, align 4, !tbaa !3
  %idxprom = sext i32 %11 to i64
  %arrayidx = getelementptr inbounds double, ptr %10, i64 %idxprom
  %12 = load double, ptr %arrayidx, align 8, !tbaa !9
  %13 = call double @llvm.fabs.f64(double %12)
  store double %13, ptr %xabs, align 8, !tbaa !9
  %14 = load double, ptr %xabs, align 8, !tbaa !9
  %15 = load double, ptr @_ZZN8QuantLib7MINPACK5enormEiPdE6rdwarf, align 8, !tbaa !9
  %cmp1 = fcmp ogt double %14, %15
  br i1 %cmp1, label %land.lhs.true, label %if.end

land.lhs.true:                                    ; preds = %for.body
  %16 = load double, ptr %xabs, align 8, !tbaa !9
  %17 = load double, ptr %agiant, align 8, !tbaa !9
  %cmp2 = fcmp olt double %16, %17
  br i1 %cmp2, label %if.then, label %if.end

if.then:                                          ; preds = %land.lhs.true
  %18 = load double, ptr %xabs, align 8, !tbaa !9
  %19 = load double, ptr %xabs, align 8, !tbaa !9
  %20 = load double, ptr %s2, align 8, !tbaa !9
  %21 = call double @llvm.fmuladd.f64(double %18, double %19, double %20)
  store double %21, ptr %s2, align 8, !tbaa !9
  br label %for.inc

if.end:                                           ; preds = %land.lhs.true, %for.body
  %22 = load double, ptr %xabs, align 8, !tbaa !9
  %23 = load double, ptr @_ZZN8QuantLib7MINPACK5enormEiPdE6rdwarf, align 8, !tbaa !9
  %cmp3 = fcmp ogt double %22, %23
  br i1 %cmp3, label %if.then4, label %if.end12

if.then4:                                         ; preds = %if.end
  %24 = load double, ptr %xabs, align 8, !tbaa !9
  %25 = load double, ptr %x1max, align 8, !tbaa !9
  %cmp5 = fcmp ogt double %24, %25
  br i1 %cmp5, label %if.then6, label %if.else

if.then6:                                         ; preds = %if.then4
  %26 = load double, ptr %x1max, align 8, !tbaa !9
  %27 = load double, ptr %xabs, align 8, !tbaa !9
  %div7 = fdiv double %26, %27
  store double %div7, ptr %temp, align 8, !tbaa !9
  %28 = load double, ptr @_ZZN8QuantLib7MINPACK5enormEiPdE3one, align 8, !tbaa !9
  %29 = load double, ptr %s1, align 8, !tbaa !9
  %30 = load double, ptr %temp, align 8, !tbaa !9
  %mul = fmul double %29, %30
  %31 = load double, ptr %temp, align 8, !tbaa !9
  %32 = call double @llvm.fmuladd.f64(double %mul, double %31, double %28)
  store double %32, ptr %s1, align 8, !tbaa !9
  %33 = load double, ptr %xabs, align 8, !tbaa !9
  store double %33, ptr %x1max, align 8, !tbaa !9
  br label %if.end11

if.else:                                          ; preds = %if.then4
  %34 = load double, ptr %xabs, align 8, !tbaa !9
  %35 = load double, ptr %x1max, align 8, !tbaa !9
  %div9 = fdiv double %34, %35
  store double %div9, ptr %temp, align 8, !tbaa !9
  %36 = load double, ptr %temp, align 8, !tbaa !9
  %37 = load double, ptr %temp, align 8, !tbaa !9
  %38 = load double, ptr %s1, align 8, !tbaa !9
  %39 = call double @llvm.fmuladd.f64(double %36, double %37, double %38)
  store double %39, ptr %s1, align 8, !tbaa !9
  br label %if.end11

if.end11:                                         ; preds = %if.else, %if.then6
  br label %for.inc

if.end12:                                         ; preds = %if.end
  %40 = load double, ptr %xabs, align 8, !tbaa !9
  %41 = load double, ptr %x3max, align 8, !tbaa !9
  %cmp13 = fcmp ogt double %40, %41
  br i1 %cmp13, label %if.then14, label %if.else18

if.then14:                                        ; preds = %if.end12
  %42 = load double, ptr %x3max, align 8, !tbaa !9
  %43 = load double, ptr %xabs, align 8, !tbaa !9
  %div15 = fdiv double %42, %43
  store double %div15, ptr %temp, align 8, !tbaa !9
  %44 = load double, ptr @_ZZN8QuantLib7MINPACK5enormEiPdE3one, align 8, !tbaa !9
  %45 = load double, ptr %s3, align 8, !tbaa !9
  %46 = load double, ptr %temp, align 8, !tbaa !9
  %mul16 = fmul double %45, %46
  %47 = load double, ptr %temp, align 8, !tbaa !9
  %48 = call double @llvm.fmuladd.f64(double %mul16, double %47, double %44)
  store double %48, ptr %s3, align 8, !tbaa !9
  %49 = load double, ptr %xabs, align 8, !tbaa !9
  store double %49, ptr %x3max, align 8, !tbaa !9
  br label %if.end24

if.else18:                                        ; preds = %if.end12
  %50 = load double, ptr %xabs, align 8, !tbaa !9
  %51 = load double, ptr @_ZZN8QuantLib7MINPACK5enormEiPdE4zero, align 8, !tbaa !9
  %cmp19 = fcmp une double %50, %51
  br i1 %cmp19, label %if.then20, label %if.end23

if.then20:                                        ; preds = %if.else18
  %52 = load double, ptr %xabs, align 8, !tbaa !9
  %53 = load double, ptr %x3max, align 8, !tbaa !9
  %div21 = fdiv double %52, %53
  store double %div21, ptr %temp, align 8, !tbaa !9
  %54 = load double, ptr %temp, align 8, !tbaa !9
  %55 = load double, ptr %temp, align 8, !tbaa !9
  %56 = load double, ptr %s3, align 8, !tbaa !9
  %57 = call double @llvm.fmuladd.f64(double %54, double %55, double %56)
  store double %57, ptr %s3, align 8, !tbaa !9
  br label %if.end23

if.end23:                                         ; preds = %if.then20, %if.else18
  br label %if.end24

if.end24:                                         ; preds = %if.end23, %if.then14
  br label %for.inc

for.inc:                                          ; preds = %if.end24, %if.end11, %if.then
  %58 = load i32, ptr %i, align 4, !tbaa !3
  %inc = add nsw i32 %58, 1
  store i32 %inc, ptr %i, align 4, !tbaa !3
  br label %for.cond, !llvm.loop !11

for.end:                                          ; preds = %for.cond
  %59 = load double, ptr %s1, align 8, !tbaa !9
  %60 = load double, ptr @_ZZN8QuantLib7MINPACK5enormEiPdE4zero, align 8, !tbaa !9
  %cmp25 = fcmp une double %59, %60
  br i1 %cmp25, label %if.then26, label %if.end30

if.then26:                                        ; preds = %for.end
  %61 = load double, ptr %s1, align 8, !tbaa !9
  %62 = load double, ptr %s2, align 8, !tbaa !9
  %63 = load double, ptr %x1max, align 8, !tbaa !9
  %div27 = fdiv double %62, %63
  %64 = load double, ptr %x1max, align 8, !tbaa !9
  %div28 = fdiv double %div27, %64
  %add = fadd double %61, %div28
  store double %add, ptr %temp, align 8, !tbaa !9
  %65 = load double, ptr %x1max, align 8, !tbaa !9
  %66 = load double, ptr %temp, align 8, !tbaa !9
  %call = call double @sqrt(double noundef %66) #6, !tbaa !3
  %mul29 = fmul double %65, %call
  store double %mul29, ptr %ans, align 8, !tbaa !9
  %67 = load double, ptr %ans, align 8, !tbaa !9
  store double %67, ptr %retval, align 8
  store i32 1, ptr %cleanup.dest.slot, align 4
  br label %cleanup

if.end30:                                         ; preds = %for.end
  %68 = load double, ptr %s2, align 8, !tbaa !9
  %69 = load double, ptr @_ZZN8QuantLib7MINPACK5enormEiPdE4zero, align 8, !tbaa !9
  %cmp31 = fcmp une double %68, %69
  br i1 %cmp31, label %if.then32, label %if.else45

if.then32:                                        ; preds = %if.end30
  %70 = load double, ptr %s2, align 8, !tbaa !9
  %71 = load double, ptr %x3max, align 8, !tbaa !9
  %cmp33 = fcmp oge double %70, %71
  br i1 %cmp33, label %if.then34, label %if.else39

if.then34:                                        ; preds = %if.then32
  %72 = load double, ptr %s2, align 8, !tbaa !9
  %73 = load double, ptr @_ZZN8QuantLib7MINPACK5enormEiPdE3one, align 8, !tbaa !9
  %74 = load double, ptr %x3max, align 8, !tbaa !9
  %75 = load double, ptr %s2, align 8, !tbaa !9
  %div35 = fdiv double %74, %75
  %76 = load double, ptr %x3max, align 8, !tbaa !9
  %77 = load double, ptr %s3, align 8, !tbaa !9
  %mul36 = fmul double %76, %77
  %78 = call double @llvm.fmuladd.f64(double %div35, double %mul36, double %73)
  %mul38 = fmul double %72, %78
  store double %mul38, ptr %temp, align 8, !tbaa !9
  br label %if.end43

if.else39:                                        ; preds = %if.then32
  %79 = load double, ptr %x3max, align 8, !tbaa !9
  %80 = load double, ptr %s2, align 8, !tbaa !9
  %81 = load double, ptr %x3max, align 8, !tbaa !9
  %div40 = fdiv double %80, %81
  %82 = load double, ptr %x3max, align 8, !tbaa !9
  %83 = load double, ptr %s3, align 8, !tbaa !9
  %84 = call double @llvm.fmuladd.f64(double %82, double %83, double %div40)
  %mul42 = fmul double %79, %84
  store double %mul42, ptr %temp, align 8, !tbaa !9
  br label %if.end43

if.end43:                                         ; preds = %if.else39, %if.then34
  %85 = load double, ptr %temp, align 8, !tbaa !9
  %call44 = call double @sqrt(double noundef %85) #6, !tbaa !3
  store double %call44, ptr %ans, align 8, !tbaa !9
  br label %if.end48

if.else45:                                        ; preds = %if.end30
  %86 = load double, ptr %x3max, align 8, !tbaa !9
  %87 = load double, ptr %s3, align 8, !tbaa !9
  %call46 = call double @sqrt(double noundef %87) #6, !tbaa !3
  %mul47 = fmul double %86, %call46
  store double %mul47, ptr %ans, align 8, !tbaa !9
  br label %if.end48

if.end48:                                         ; preds = %if.else45, %if.end43
  %88 = load double, ptr %ans, align 8, !tbaa !9
  store double %88, ptr %retval, align 8
  store i32 1, ptr %cleanup.dest.slot, align 4
  br label %cleanup

cleanup:                                          ; preds = %if.end48, %if.then26
  call void @llvm.lifetime.end.p0(i64 8, ptr %temp) #6
  call void @llvm.lifetime.end.p0(i64 8, ptr %ans) #6
  call void @llvm.lifetime.end.p0(i64 8, ptr %x3max) #6
  call void @llvm.lifetime.end.p0(i64 8, ptr %x1max) #6
  call void @llvm.lifetime.end.p0(i64 8, ptr %xabs) #6
  call void @llvm.lifetime.end.p0(i64 8, ptr %s3) #6
  call void @llvm.lifetime.end.p0(i64 8, ptr %s2) #6
  call void @llvm.lifetime.end.p0(i64 8, ptr %s1) #6
  call void @llvm.lifetime.end.p0(i64 8, ptr %floatn) #6
  call void @llvm.lifetime.end.p0(i64 8, ptr %agiant) #6
  call void @llvm.lifetime.end.p0(i64 4, ptr %i) #6
  %89 = load double, ptr %retval, align 8
  ret double %89
}