; Function Attrs: mustprogress nofree nounwind memory(write, argmem: readwrite) uwtable
define noundef double @_ZN8QuantLib7MINPACK5enormEiPd(i32 noundef %n, ptr nocapture noundef readonly %x) local_unnamed_addr #0 {
entry:
  %conv = sitofp i32 %n to double
  %div = fdiv double 1.304000e+19, %conv
  %cmp55 = icmp sgt i32 %n, 0
  br i1 %cmp55, label %for.body.preheader, label %if.else45

for.body.preheader:                               ; preds = %entry
  %wide.trip.count = zext nneg i32 %n to i64
  br label %for.body

for.body:                                         ; preds = %for.body.preheader, %for.inc
  %indvars.iv = phi i64 [ 0, %for.body.preheader ], [ %indvars.iv.next, %for.inc ]
  %x3max.061 = phi double [ 0.000000e+00, %for.body.preheader ], [ %x3max.1, %for.inc ]
  %x1max.060 = phi double [ 0.000000e+00, %for.body.preheader ], [ %x1max.1, %for.inc ]
  %s3.059 = phi double [ 0.000000e+00, %for.body.preheader ], [ %s3.1, %for.inc ]
  %s2.058 = phi double [ 0.000000e+00, %for.body.preheader ], [ %s2.1, %for.inc ]
  %s1.057 = phi double [ 0.000000e+00, %for.body.preheader ], [ %s1.1, %for.inc ]
  %arrayidx = getelementptr inbounds double, ptr %x, i64 %indvars.iv
  %0 = load double, ptr %arrayidx, align 8, !tbaa !3
  %1 = tail call double @llvm.fabs.f64(double %0)
  %cmp1 = fcmp ogt double %1, 3.834000e-20
  %cmp2 = fcmp olt double %1, %div
  %or.cond = and i1 %cmp1, %cmp2
  br i1 %or.cond, label %if.then, label %if.end

if.then:                                          ; preds = %for.body
  %2 = tail call double @llvm.fmuladd.f64(double %0, double %0, double %s2.058)
  br label %for.inc

if.end:                                           ; preds = %for.body
  br i1 %cmp1, label %if.then4, label %if.end12

if.then4:                                         ; preds = %if.end
  %cmp5 = fcmp ogt double %1, %x1max.060
  br i1 %cmp5, label %if.then6, label %if.else

if.then6:                                         ; preds = %if.then4
  %div7 = fdiv double %x1max.060, %1
  %mul = fmul double %s1.057, %div7
  %3 = tail call double @llvm.fmuladd.f64(double %mul, double %div7, double 1.000000e+00)
  br label %for.inc

if.else:                                          ; preds = %if.then4
  %div9 = fdiv double %1, %x1max.060
  %4 = tail call double @llvm.fmuladd.f64(double %div9, double %div9, double %s1.057)
  br label %for.inc

if.end12:                                         ; preds = %if.end
  %cmp13 = fcmp ogt double %1, %x3max.061
  br i1 %cmp13, label %if.then14, label %if.else18

if.then14:                                        ; preds = %if.end12
  %div15 = fdiv double %x3max.061, %1
  %mul16 = fmul double %s3.059, %div15
  %5 = tail call double @llvm.fmuladd.f64(double %mul16, double %div15, double 1.000000e+00)
  br label %for.inc

if.else18:                                        ; preds = %if.end12
  %cmp19 = fcmp une double %0, 0.000000e+00
  br i1 %cmp19, label %if.then20, label %for.inc

if.then20:                                        ; preds = %if.else18
  %div21 = fdiv double %1, %x3max.061
  %6 = tail call double @llvm.fmuladd.f64(double %div21, double %div21, double %s3.059)
  br label %for.inc

for.inc:                                          ; preds = %if.then14, %if.then20, %if.else18, %if.then6, %if.else, %if.then
  %s1.1 = phi double [ %s1.057, %if.then ], [ %3, %if.then6 ], [ %4, %if.else ], [ %s1.057, %if.then14 ], [ %s1.057, %if.then20 ], [ %s1.057, %if.else18 ]
  %s2.1 = phi double [ %2, %if.then ], [ %s2.058, %if.then6 ], [ %s2.058, %if.else ], [ %s2.058, %if.then14 ], [ %s2.058, %if.then20 ], [ %s2.058, %if.else18 ]
  %s3.1 = phi double [ %s3.059, %if.then ], [ %s3.059, %if.then6 ], [ %s3.059, %if.else ], [ %5, %if.then14 ], [ %6, %if.then20 ], [ %s3.059, %if.else18 ]
  %x1max.1 = phi double [ %x1max.060, %if.then ], [ %1, %if.then6 ], [ %x1max.060, %if.else ], [ %x1max.060, %if.then14 ], [ %x1max.060, %if.then20 ], [ %x1max.060, %if.else18 ]
  %x3max.1 = phi double [ %x3max.061, %if.then ], [ %x3max.061, %if.then6 ], [ %x3max.061, %if.else ], [ %1, %if.then14 ], [ %x3max.061, %if.then20 ], [ %x3max.061, %if.else18 ]
  %indvars.iv.next = add nuw nsw i64 %indvars.iv, 1
  %exitcond.not = icmp eq i64 %indvars.iv.next, %wide.trip.count
  br i1 %exitcond.not, label %for.end, label %for.body, !llvm.loop !7

for.end:                                          ; preds = %for.inc
  %cmp25 = fcmp une double %s1.1, 0.000000e+00
  br i1 %cmp25, label %if.then26, label %if.end30

if.then26:                                        ; preds = %for.end
  %div27 = fdiv double %s2.1, %x1max.1
  %div28 = fdiv double %div27, %x1max.1
  %add = fadd double %s1.1, %div28
  %call = tail call double @sqrt(double noundef %add) #10, !tbaa !9
  %mul29 = fmul double %x1max.1, %call
  br label %cleanup

if.end30:                                         ; preds = %for.end
  %cmp31 = fcmp une double %s2.1, 0.000000e+00
  br i1 %cmp31, label %if.then32, label %if.else45

if.then32:                                        ; preds = %if.end30
  %cmp33 = fcmp ult double %s2.1, %x3max.1
  br i1 %cmp33, label %if.else39, label %if.then34

if.then34:                                        ; preds = %if.then32
  %div35 = fdiv double %x3max.1, %s2.1
  %mul36 = fmul double %s3.1, %x3max.1
  %7 = tail call double @llvm.fmuladd.f64(double %div35, double %mul36, double 1.000000e+00)
  %mul38 = fmul double %s2.1, %7
  br label %if.end43

if.else39:                                        ; preds = %if.then32
  %div40 = fdiv double %s2.1, %x3max.1
  %8 = tail call double @llvm.fmuladd.f64(double %x3max.1, double %s3.1, double %div40)
  %mul42 = fmul double %x3max.1, %8
  br label %if.end43

if.end43:                                         ; preds = %if.else39, %if.then34
  %temp.0 = phi double [ %mul38, %if.then34 ], [ %mul42, %if.else39 ]
  %call44 = tail call double @sqrt(double noundef %temp.0) #10, !tbaa !9
  br label %cleanup

if.else45:                                        ; preds = %entry, %if.end30
  %s3.0.lcssa7481 = phi double [ %s3.1, %if.end30 ], [ 0.000000e+00, %entry ]
  %x3max.0.lcssa7580 = phi double [ %x3max.1, %if.end30 ], [ 0.000000e+00, %entry ]
  %call46 = tail call double @sqrt(double noundef %s3.0.lcssa7481) #10, !tbaa !9
  %mul47 = fmul double %x3max.0.lcssa7580, %call46
  br label %cleanup

cleanup:                                          ; preds = %if.end43, %if.else45, %if.then26
  %retval.0 = phi double [ %mul29, %if.then26 ], [ %call44, %if.end43 ], [ %mul47, %if.else45 ]
  ret double %retval.0
}